target datalayout = "e-m:e-p270:32:32-p271:32:32-p272:64:64-i64:64-i128:128-f80:128-n8:16:32:64-S128"
target triple = "x86_64-pc-linux-gnu"

@.str.43 = private unnamed_addr constant [16 x i8] c"#EXT-X-ENDLIST\0A\00", align 1

; Function Attrs: nounwind uwtable
define void @ff_hls_write_end_list(ptr noundef %0) #0 {
  %2 = alloca ptr, align 8
  store ptr %0, ptr %2, align 8, !tbaa !4
  %3 = load ptr, ptr %2, align 8, !tbaa !4
  %4 = icmp ne ptr %3, null
  br i1 %4, label %6, label %5

5:                                                ; preds = %1
  br label %9

6:                                                ; preds = %1
  %7 = load ptr, ptr %2, align 8, !tbaa !4
  %8 = call i32 (ptr, ptr, ...) @avio_printf(ptr noundef %7, ptr noundef @.str.43)
  br label %9

9:                                                ; preds = %6, %5
  ret void
}