; Function Attrs: nounwind uwtable
define void @ff_hls_write_end_list(ptr noundef %0) local_unnamed_addr #0 {
  %.not = icmp eq ptr %0, null
  br i1 %.not, label %4, label %2

2:                                                ; preds = %1
  %3 = tail call i32 (ptr, ptr, ...) @avio_printf(ptr noundef nonnull %0, ptr noundef nonnull @.str.43) #8
  br label %4

4:                                                ; preds = %1, %2
  ret void
}